; Function Attrs: nounwind uwtable
define dso_local ptr @find_childrel_parents(ptr noundef readonly captures(none) %0, ptr noundef readonly captures(none) %1) local_unnamed_addr #0 {
  %3 = getelementptr inbounds nuw i8, ptr %0, i64 80
  %4 = getelementptr inbounds nuw i8, ptr %0, i64 64
  %5 = getelementptr inbounds nuw i8, ptr %0, i64 56
  br label %6

6:                                                ; preds = %find_base_rel.exit, %2
  %.08 = phi ptr [ null, %2 ], [ %15, %find_base_rel.exit ]
  %.0 = phi ptr [ %1, %2 ], [ %22, %find_base_rel.exit ]
  %7 = load ptr, ptr %3, align 8
  %8 = getelementptr inbounds nuw i8, ptr %.0, i64 112
  %9 = load i32, ptr %8, align 8
  %10 = zext i32 %9 to i64
  %11 = getelementptr inbounds nuw ptr, ptr %7, i64 %10
  %12 = load ptr, ptr %11, align 8
  %13 = getelementptr inbounds nuw i8, ptr %12, i64 4
  %14 = load i32, ptr %13, align 4
  %15 = tail call ptr @bms_add_member(ptr noundef %.08, i32 noundef %14) #7
  %16 = load i32, ptr %4, align 8
  %17 = icmp ult i32 %14, %16
  br i1 %17, label %18, label %23

18:                                               ; preds = %6
  %19 = load ptr, ptr %5, align 8
  %20 = sext i32 %14 to i64
  %21 = getelementptr inbounds ptr, ptr %19, i64 %20
  %22 = load ptr, ptr %21, align 8
  %.not.i = icmp eq ptr %22, null
  br i1 %.not.i, label %23, label %find_base_rel.exit

23:                                               ; preds = %18, %6
  %24 = tail call zeroext i1 @errstart_cold(i32 noundef 21, ptr noundef null) #8
  tail call void @llvm.assume(i1 %24)
  %25 = tail call i32 (ptr, ...) @errmsg_internal(ptr noundef nonnull @.str.4, i32 noundef %14) #7
  tail call void @errfinish(ptr noundef nonnull @.str.1, i32 noundef 426, ptr noundef nonnull @__func__.find_base_rel) #7
  unreachable

find_base_rel.exit:                               ; preds = %18
  %26 = getelementptr inbounds nuw i8, ptr %22, i64 4
  %27 = load i32, ptr %26, align 4
  %28 = icmp eq i32 %27, 2
  br i1 %28, label %6, label %29, !llvm.loop !9

29:                                               ; preds = %find_base_rel.exit
  ret ptr %15
}